; Function Attrs: nofree nounwind memory(read, argmem: readwrite, inaccessiblemem: none) uwtable
define range(i32 0, 2) i32 @tng_chain_residue_find(ptr noundef readnone captures(none) %0, ptr noundef readonly captures(none) %1, ptr noundef readonly captures(none) %2, i64 noundef %3, ptr noundef writeonly captures(none) initializes((0, 8)) %4) local_unnamed_addr #14 {
  %6 = getelementptr inbounds nuw i8, ptr %1, i64 24
  %7 = load i64, ptr %6, align 8, !tbaa !59
  %8 = icmp sgt i64 %7, 0
  br i1 %8, label %.lr.ph, label %._crit_edge

.lr.ph:                                           ; preds = %5
  %.01416 = add nsw i64 %7, -1
  %9 = getelementptr inbounds nuw i8, ptr %1, i64 32
  %10 = icmp eq i64 %3, -1
  br i1 %10, label %.lr.ph.split.us, label %.lr.ph.split

.lr.ph.split.us:                                  ; preds = %.lr.ph, %20
  %.01417.us = phi i64 [ %.014.us, %20 ], [ %.01416, %.lr.ph ]
  %11 = load ptr, ptr %9, align 8, !tbaa !60
  %12 = getelementptr inbounds nuw %struct.tng_residue, ptr %11, i64 %.01417.us
  store ptr %12, ptr %4, align 8, !tbaa !11
  %13 = load i8, ptr %2, align 1, !tbaa !13
  %14 = icmp eq i8 %13, 0
  br i1 %14, label %.loopexit, label %15

15:                                               ; preds = %.lr.ph.split.us
  %16 = getelementptr inbounds nuw i8, ptr %12, i64 16
  %17 = load ptr, ptr %16, align 8, !tbaa !61
  %18 = tail call i32 @strcmp(ptr noundef nonnull dereferenceable(1) %2, ptr noundef nonnull dereferenceable(1) %17) #27
  %19 = icmp eq i32 %18, 0
  br i1 %19, label %.loopexit, label %20

20:                                               ; preds = %15
  %.014.us = add nsw i64 %.01417.us, -1
  %21 = icmp sgt i64 %.01417.us, 0
  br i1 %21, label %.lr.ph.split.us, label %._crit_edge, !llvm.loop !91

.lr.ph.split:                                     ; preds = %.lr.ph, %35
  %.01417 = phi i64 [ %.014, %35 ], [ %.01416, %.lr.ph ]
  %22 = load ptr, ptr %9, align 8, !tbaa !60
  %23 = getelementptr inbounds nuw %struct.tng_residue, ptr %22, i64 %.01417
  store ptr %23, ptr %4, align 8, !tbaa !11
  %24 = load i8, ptr %2, align 1, !tbaa !13
  %25 = icmp eq i8 %24, 0
  br i1 %25, label %31, label %26

26:                                               ; preds = %.lr.ph.split
  %27 = getelementptr inbounds nuw i8, ptr %23, i64 16
  %28 = load ptr, ptr %27, align 8, !tbaa !61
  %29 = tail call i32 @strcmp(ptr noundef nonnull dereferenceable(1) %2, ptr noundef nonnull dereferenceable(1) %28) #27
  %30 = icmp eq i32 %29, 0
  br i1 %30, label %31, label %35

31:                                               ; preds = %26, %.lr.ph.split
  %32 = getelementptr inbounds nuw i8, ptr %23, i64 8
  %33 = load i64, ptr %32, align 8, !tbaa !63
  %34 = icmp eq i64 %3, %33
  br i1 %34, label %.loopexit, label %35

35:                                               ; preds = %26, %31
  %.014 = add nsw i64 %.01417, -1
  %36 = icmp sgt i64 %.01417, 0
  br i1 %36, label %.lr.ph.split, label %._crit_edge, !llvm.loop !91

._crit_edge:                                      ; preds = %35, %20, %5
  store ptr null, ptr %4, align 8, !tbaa !11
  br label %.loopexit

.loopexit:                                        ; preds = %31, %.lr.ph.split.us, %15, %._crit_edge
  %.0 = phi i32 [ 1, %._crit_edge ], [ 0, %15 ], [ 0, %.lr.ph.split.us ], [ 0, %31 ]
  ret i32 %.0
}